target datalayout = "e-m:e-p270:32:32-p271:32:32-p272:64:64-i64:64-i128:128-f80:128-n8:16:32:64-S128"
target triple = "x86_64-pc-linux-gnu"

; Function Attrs: nounwind uwtable
define internal i32 @scalarproduct_int16_c(ptr noundef %0, ptr noundef %1, i32 noundef %2) #1 {
  %4 = alloca i32, align 4
  %5 = alloca ptr, align 8
  %6 = alloca ptr, align 8
  %7 = alloca i32, align 4
  %8 = alloca i64, align 8
  %9 = alloca i32, align 4
  store ptr %0, ptr %5, align 8, !tbaa !40
  store ptr %1, ptr %6, align 8, !tbaa !40
  store i32 %2, ptr %7, align 4, !tbaa !31
  call void @llvm.lifetime.start.p0(i64 8, ptr %8) #9
  store i64 0, ptr %8, align 8, !tbaa !84
  br label %10

10:                                               ; preds = %14, %3
  %11 = load i32, ptr %7, align 4, !tbaa !31
  %12 = add nsw i32 %11, -1
  store i32 %12, ptr %7, align 4, !tbaa !31
  %13 = icmp ne i32 %11, 0
  br i1 %13, label %14, label %27

14:                                               ; preds = %10
  %15 = load ptr, ptr %5, align 8, !tbaa !40
  %16 = getelementptr inbounds nuw i16, ptr %15, i32 1
  store ptr %16, ptr %5, align 8, !tbaa !40
  %17 = load i16, ptr %15, align 2, !tbaa !41
  %18 = sext i16 %17 to i32
  %19 = load ptr, ptr %6, align 8, !tbaa !40
  %20 = getelementptr inbounds nuw i16, ptr %19, i32 1
  store ptr %20, ptr %6, align 8, !tbaa !40
  %21 = load i16, ptr %19, align 2, !tbaa !41
  %22 = sext i16 %21 to i32
  %23 = mul nsw i32 %18, %22
  %24 = sext i32 %23 to i64
  %25 = load i64, ptr %8, align 8, !tbaa !84
  %26 = add nsw i64 %25, %24
  store i64 %26, ptr %8, align 8, !tbaa !84
  br label %10, !llvm.loop !85

27:                                               ; preds = %10
  %28 = load i64, ptr %8, align 8, !tbaa !84
  %29 = icmp sgt i64 %28, 2147483647
  br i1 %29, label %30, label %31

30:                                               ; preds = %27
  store i32 2147483647, ptr %4, align 4
  store i32 1, ptr %9, align 4
  br label %39

31:                                               ; preds = %27
  %32 = load i64, ptr %8, align 8, !tbaa !84
  %33 = icmp slt i64 %32, -2147483648
  br i1 %33, label %34, label %35

34:                                               ; preds = %31
  store i32 -2147483648, ptr %4, align 4
  store i32 1, ptr %9, align 4
  br label %39

35:                                               ; preds = %31
  br label %36

36:                                               ; preds = %35
  %37 = load i64, ptr %8, align 8, !tbaa !84
  %38 = trunc i64 %37 to i32
  store i32 %38, ptr %4, align 4
  store i32 1, ptr %9, align 4
  br label %39

39:                                               ; preds = %36, %34, %30
  call void @llvm.lifetime.end.p0(i64 8, ptr %8) #9
  %40 = load i32, ptr %4, align 4
  ret i32 %40
}