; Function Attrs: nofree norecurse nosync nounwind memory(argmem: read) uwtable
define internal i32 @scalarproduct_int16_c(ptr noundef readonly captures(none) %0, ptr noundef readonly captures(none) %1, i32 noundef %2) #5 {
  %.not13 = icmp eq i32 %2, 0
  br i1 %.not13, label %._crit_edge, label %.lr.ph

.lr.ph:                                           ; preds = %3, %.lr.ph
  %.017 = phi i64 [ %12, %.lr.ph ], [ 0, %3 ]
  %.0716 = phi i32 [ %4, %.lr.ph ], [ %2, %3 ]
  %.0815 = phi ptr [ %8, %.lr.ph ], [ %1, %3 ]
  %.0914 = phi ptr [ %5, %.lr.ph ], [ %0, %3 ]
  %4 = add nsw i32 %.0716, -1
  %5 = getelementptr inbounds nuw i8, ptr %.0914, i64 2
  %6 = load i16, ptr %.0914, align 2, !tbaa !37
  %7 = sext i16 %6 to i64
  %8 = getelementptr inbounds nuw i8, ptr %.0815, i64 2
  %9 = load i16, ptr %.0815, align 2, !tbaa !37
  %10 = sext i16 %9 to i64
  %11 = mul nsw i64 %10, %7
  %12 = add nsw i64 %11, %.017
  %.not = icmp eq i32 %4, 0
  br i1 %.not, label %._crit_edge, label %.lr.ph, !llvm.loop !85

._crit_edge:                                      ; preds = %.lr.ph, %3
  %.0.lcssa = phi i64 [ 0, %3 ], [ %12, %.lr.ph ]
  %spec.select11 = tail call i64 @llvm.smax.i64(i64 %.0.lcssa, i64 -2147483648)
  %.01012 = tail call i64 @llvm.smin.i64(i64 %spec.select11, i64 2147483647)
  %.010 = trunc nsw i64 %.01012 to i32
  ret i32 %.010
}